Certificate:
    Data:
        Version: 3 (0x2)
        Serial Number: 3 (0x3)
    Signature Algorithm: sha256WithRSAEncryption
        Issuer: C=JP, ST=Linear, O=Linear Sample, CN=Linear Sample CA
        Validity
            Not Before: Jan 22 02:44:51 2016 GMT
            Not After : Jan 19 02:44:51 2026 GMT
        Subject: C=JP, ST=Linear, O=Linear Sample, CN=Linear Sample CLIENT-W-PASS
        Subject Public Key Info:
            Public Key Algorithm: rsaEncryption
                Public-Key: (2048 bit)
                Modulus:
                    00:e7:ff:59:bf:48:65:fa:30:63:5d:0e:44:53:7c:
                    fb:3c:65:a8:22:6a:d8:e2:4d:bb:20:07:90:62:af:
                    e1:27:94:ef:ee:88:79:55:cf:24:a8:f2:3f:8c:da:
                    5e:28:56:80:c5:e7:5d:3a:65:26:84:8b:19:22:7b:
                    14:4e:f5:6f:f2:b7:70:85:08:44:c8:e7:ef:7d:a5:
                    a8:bb:24:67:69:90:ea:8b:38:aa:35:1c:04:f4:6b:
                    0c:f5:24:a4:1f:3f:0f:f2:21:bf:e0:68:1e:d9:e2:
                    c5:53:a7:7f:d3:6e:2d:c5:0a:15:e3:de:33:40:d9:
                    fc:ed:e5:6d:ed:21:9e:30:92:8f:53:d7:f0:2c:42:
                    17:61:9c:e9:36:b9:1f:c2:29:b6:4e:f0:6d:d9:9b:
                    2a:2e:99:f4:ce:d6:71:ad:63:da:5b:3e:18:ad:5e:
                    ee:5d:d0:3a:b9:9c:22:9d:64:3f:51:7c:25:3e:e3:
                    72:f9:94:0a:93:e5:d2:53:7a:45:69:cb:8b:37:2c:
                    0b:53:bf:ac:ee:aa:7d:f9:c7:8f:4c:32:55:8e:1c:
                    e4:a9:0e:3f:b7:5d:34:23:1c:f1:8f:c9:c5:69:be:
                    75:b5:f5:5f:a4:f7:88:ac:50:da:7d:7c:3d:20:59:
                    c4:7b:ee:2e:ae:7d:04:7c:64:34:8f:fe:b5:08:ff:
                    87:3f
                Exponent: 65537 (0x10001)
        X509v3 extensions:
            X509v3 Basic Constraints: 
                CA:FALSE
            Netscape Comment: 
                OpenSSL Generated Certificate
            X509v3 Subject Key Identifier: 
                B5:42:87:0E:C9:8A:D2:4E:39:D9:97:DE:95:48:AC:65:B3:3A:C0:8F
            X509v3 Authority Key Identifier: 
                DirName:/C=JP/ST=Linear/O=Linear Sample/CN=Linear Sample CA
                serial:A9:B6:45:52:B1:31:07:9C

    Signature Algorithm: sha256WithRSAEncryption
         02:cb:94:fe:ff:91:b6:25:18:27:25:25:b7:a0:5f:8c:33:0b:
         e2:34:69:19:26:36:42:15:6b:c9:52:61:b6:a7:db:ec:bd:23:
         09:98:02:55:41:0e:0e:c1:a3:41:43:45:a3:d2:aa:66:79:48:
         f6:b5:39:58:43:09:f5:c9:95:66:34:d5:70:27:f8:c4:ff:8f:
         7e:ea:a5:39:08:1a:be:02:5d:09:d1:79:8d:23:f8:b5:ff:35:
         80:b4:51:c8:d4:84:a1:2a:08:e2:a3:88:fd:18:27:ba:df:e1:
         cf:14:c6:42:f2:87:ca:cd:09:2c:99:7a:27:76:64:1a:a0:e4:
         f9:31:73:ea:80:74:00:53:0a:2c:2e:ef:1a:1d:b0:9b:62:7f:
         aa:51:ad:d4:a9:f8:5f:dc:bf:7e:05:fd:fa:9d:6e:fb:57:42:
         a2:f4:58:81:ff:13:ad:24:ce:82:ec:74:21:45:50:84:88:ae:
         b5:0d:ea:24:33:d1:70:6a:a5:3d:32:78:b0:a8:f6:7f:67:ed:
         05:d5:78:5e:92:c5:42:f1:a9:7d:67:98:07:63:be:8d:4f:db:
         e3:b9:9a:be:9b:73:99:21:27:f3:e3:d6:db:a2:ef:14:c0:04:
         5f:ce:ed:39:55:db:f8:a4:8f:2c:a5:8d:e2:3c:fc:d7:b6:5b:
         26:76:3c:af
-----BEGIN CERTIFICATE-----
MIID8TCCAtmgAwIBAgIBAzANBgkqhkiG9w0BAQsFADBRMQswCQYDVQQGEwJKUDEP
MA0GA1UECAwGTGluZWFyMRYwFAYDVQQKDA1MaW5lYXIgU2FtcGxlMRkwFwYDVQQD
DBBMaW5lYXIgU2FtcGxlIENBMB4XDTE2MDEyMjAyNDQ1MVoXDTI2MDExOTAyNDQ1
MVowXDELMAkGA1UEBhMCSlAxDzANBgNVBAgMBkxpbmVhcjEWMBQGA1UECgwNTGlu
ZWFyIFNhbXBsZTEkMCIGA1UEAwwbTGluZWFyIFNhbXBsZSBDTElFTlQtVy1QQVNT
MIIBIjANBgkqhkiG9w0BAQEFAAOCAQ8AMIIBCgKCAQEA5/9Zv0hl+jBjXQ5EU3z7
PGWoImrY4k27IAeQYq/hJ5Tv7oh5Vc8kqPI/jNpeKFaAxeddOmUmhIsZInsUTvVv
8rdwhQhEyOfvfaWouyRnaZDqiziqNRwE9GsM9SSkHz8P8iG/4Gge2eLFU6d/024t
xQoV494zQNn87eVt7SGeMJKPU9fwLEIXYZzpNrkfwim2TvBt2ZsqLpn0ztZxrWPa
Wz4YrV7uXdA6uZwinWQ/UXwlPuNy+ZQKk+XSU3pFacuLNywLU7+s7qp9+cePTDJV
jhzkqQ4/t100Ixzxj8nFab51tfVfpPeIrFDafXw9IFnEe+4urn0EfGQ0j/61CP+H
PwIDAQABo4HIMIHFMAkGA1UdEwQCMAAwLAYJYIZIAYb4QgENBB8WHU9wZW5TU0wg
R2VuZXJhdGVkIENlcnRpZmljYXRlMB0GA1UdDgQWBBS1QocOyYrSTjnZl96VSKxl
szrAjzBrBgNVHSMEZDBioVWkUzBRMQswCQYDVQQGEwJKUDEPMA0GA1UECAwGTGlu
ZWFyMRYwFAYDVQQKDA1MaW5lYXIgU2FtcGxlMRkwFwYDVQQDDBBMaW5lYXIgU2Ft
cGxlIENBggkAqbZFUrExB5wwDQYJKoZIhvcNAQELBQADggEBAALLlP7/kbYlGCcl
JbegX4wzC+I0aRkmNkIVa8lSYban2+y9IwmYAlVBDg7Bo0FDRaPSqmZ5SPa1OVhD
CfXJlWY01XAn+MT/j37qpTkIGr4CXQnReY0j+LX/NYC0UcjUhKEqCOKjiP0YJ7rf
4c8UxkLyh8rNCSyZeid2ZBqg5Pkxc+qAdABTCiwu7xodsJtif6pRrdSp+F/cv34F
/fqdbvtXQqL0WIH/E60kzoLsdCFFUISIrrUN6iQz0XBqpT0yeLCo9n9n7QXVeF6S
xULxqX1nmAdjvo1P2+O5mr6bc5khJ/Pj1tui7xTABF/O7TlV2/ikjyyljeI8/Ne2
WyZ2PK8=
-----END CERTIFICATE-----
