Certificate:
    Data:
        Version: 3 (0x2)
        Serial Number: 1 (0x1)
    Signature Algorithm: sha256WithRSAEncryption
        Issuer: C=JP, ST=Linear, O=Linear Sample, CN=Linear Sample CA
        Validity
            Not Before: Jan 22 02:44:50 2016 GMT
            Not After : Jan 19 02:44:50 2026 GMT
        Subject: C=JP, ST=Linear, O=Linear Sample, CN=Linear Sample CLIENT
        Subject Public Key Info:
            Public Key Algorithm: rsaEncryption
                Public-Key: (2048 bit)
                Modulus:
                    00:a9:99:1d:34:cb:02:a0:cc:d9:bf:f0:42:b9:25:
                    2a:6d:d6:3c:e8:21:49:e4:bc:74:ac:a3:65:cc:6a:
                    bb:b4:b1:54:37:bc:45:cd:00:b1:e5:18:4f:76:4b:
                    05:45:7d:18:d4:ed:e3:33:0f:c4:24:46:4a:88:39:
                    7f:3b:3c:a9:bb:6d:dc:29:ef:e2:1c:29:64:66:de:
                    21:97:0b:f6:a8:d2:2f:e7:ff:d4:70:cd:0f:5f:4f:
                    1a:c7:91:37:98:dd:01:92:83:80:d8:51:1d:b9:c1:
                    bc:6c:4a:bc:70:83:16:b8:b1:e6:65:d4:d6:69:26:
                    5f:43:74:64:15:1f:84:32:19:20:94:b7:25:56:12:
                    c1:a7:6a:8f:eb:d4:80:fc:08:b9:e3:2e:81:42:8d:
                    39:7a:f6:bf:2f:b8:f2:00:90:84:0d:1a:bb:eb:55:
                    a4:8e:25:78:69:90:97:75:2d:1d:d1:73:43:85:75:
                    9d:c3:72:62:e2:19:83:bc:43:ba:89:5e:81:ee:83:
                    0d:99:81:f5:11:06:65:fd:1b:a0:75:bc:e4:69:6d:
                    93:66:dd:d2:6c:7a:e4:7a:d3:1f:5f:ee:58:90:5f:
                    32:89:16:5b:b2:6e:1f:2d:c5:77:40:71:5a:8f:b9:
                    3f:3e:49:7e:fb:db:21:26:2a:89:ed:e9:61:9d:9f:
                    7c:51
                Exponent: 65537 (0x10001)
        X509v3 extensions:
            X509v3 Basic Constraints: 
                CA:FALSE
            Netscape Comment: 
                OpenSSL Generated Certificate
            X509v3 Subject Key Identifier: 
                03:D3:5C:3A:C0:09:E4:16:35:72:6B:DF:3F:FD:4D:8E:E3:59:BF:8C
            X509v3 Authority Key Identifier: 
                DirName:/C=JP/ST=Linear/O=Linear Sample/CN=Linear Sample CA
                serial:A9:B6:45:52:B1:31:07:9C

    Signature Algorithm: sha256WithRSAEncryption
         5c:32:49:18:ae:ee:0d:26:4c:c7:1e:10:b4:c1:47:9d:71:21:
         7b:70:36:b5:da:1d:2e:07:f8:18:b8:42:01:8d:4d:ce:56:ed:
         38:d1:38:d2:8b:a5:87:49:34:8e:e5:39:08:21:2d:6e:b8:64:
         0e:e6:f1:b0:4b:f0:ce:6f:4f:c7:2a:34:f5:94:25:96:4e:6f:
         44:b0:33:be:c2:70:31:d1:4f:9a:5d:78:8e:30:0c:d1:09:77:
         2f:f2:30:3f:45:9d:0f:09:3e:47:8d:b7:7b:51:97:9d:8f:46:
         62:a6:30:63:22:05:f1:ef:15:6e:47:fe:d0:f9:9e:ea:15:32:
         85:7b:3f:52:78:0f:d9:a8:2c:79:10:9c:57:fd:c3:cd:3a:17:
         8e:dd:f8:9f:a5:3b:64:88:63:f5:46:c8:a1:cc:7c:f6:9c:77:
         b8:26:9b:1d:de:55:49:51:81:1a:4c:34:a5:9b:45:1f:14:14:
         34:06:18:89:40:ac:ff:b1:41:c7:f3:d2:9c:2a:64:1b:b2:fb:
         9e:2c:34:3b:21:58:1a:4f:27:d8:72:d8:08:60:05:20:9a:fe:
         07:ee:de:9a:28:d1:93:6f:e0:86:ee:26:b5:cb:57:67:02:56:
         72:31:c0:28:48:9e:dc:ff:42:1e:02:2f:a8:3f:d3:77:10:eb:
         89:81:9b:31
-----BEGIN CERTIFICATE-----
MIID6jCCAtKgAwIBAgIBATANBgkqhkiG9w0BAQsFADBRMQswCQYDVQQGEwJKUDEP
MA0GA1UECAwGTGluZWFyMRYwFAYDVQQKDA1MaW5lYXIgU2FtcGxlMRkwFwYDVQQD
DBBMaW5lYXIgU2FtcGxlIENBMB4XDTE2MDEyMjAyNDQ1MFoXDTI2MDExOTAyNDQ1
MFowVTELMAkGA1UEBhMCSlAxDzANBgNVBAgMBkxpbmVhcjEWMBQGA1UECgwNTGlu
ZWFyIFNhbXBsZTEdMBsGA1UEAwwUTGluZWFyIFNhbXBsZSBDTElFTlQwggEiMA0G
CSqGSIb3DQEBAQUAA4IBDwAwggEKAoIBAQCpmR00ywKgzNm/8EK5JSpt1jzoIUnk
vHSso2XMaru0sVQ3vEXNALHlGE92SwVFfRjU7eMzD8QkRkqIOX87PKm7bdwp7+Ic
KWRm3iGXC/ao0i/n/9RwzQ9fTxrHkTeY3QGSg4DYUR25wbxsSrxwgxa4seZl1NZp
Jl9DdGQVH4QyGSCUtyVWEsGnao/r1ID8CLnjLoFCjTl69r8vuPIAkIQNGrvrVaSO
JXhpkJd1LR3Rc0OFdZ3DcmLiGYO8Q7qJXoHugw2ZgfURBmX9G6B1vORpbZNm3dJs
euR60x9f7liQXzKJFluybh8txXdAcVqPuT8+SX772yEmKont6WGdn3xRAgMBAAGj
gcgwgcUwCQYDVR0TBAIwADAsBglghkgBhvhCAQ0EHxYdT3BlblNTTCBHZW5lcmF0
ZWQgQ2VydGlmaWNhdGUwHQYDVR0OBBYEFAPTXDrACeQWNXJr3z/9TY7jWb+MMGsG
A1UdIwRkMGKhVaRTMFExCzAJBgNVBAYTAkpQMQ8wDQYDVQQIDAZMaW5lYXIxFjAU
BgNVBAoMDUxpbmVhciBTYW1wbGUxGTAXBgNVBAMMEExpbmVhciBTYW1wbGUgQ0GC
CQCptkVSsTEHnDANBgkqhkiG9w0BAQsFAAOCAQEAXDJJGK7uDSZMxx4QtMFHnXEh
e3A2tdodLgf4GLhCAY1NzlbtONE40oulh0k0juU5CCEtbrhkDubxsEvwzm9Pxyo0
9ZQllk5vRLAzvsJwMdFPml14jjAM0Ql3L/IwP0WdDwk+R423e1GXnY9GYqYwYyIF
8e8Vbkf+0Pme6hUyhXs/UngP2agseRCcV/3DzToXjt34n6U7ZIhj9UbIocx89px3
uCabHd5VSVGBGkw0pZtFHxQUNAYYiUCs/7FBx/PSnCpkG7L7niw0OyFYGk8n2HLY
CGAFIJr+B+7emijRk2/ghu4mtctXZwJWcjHAKEie3P9CHgIvqD/TdxDriYGbMQ==
-----END CERTIFICATE-----
