Certificate:
    Data:
        Version: 3 (0x2)
        Serial Number: 1 (0x1)
    Signature Algorithm: sha256WithRSAEncryption
        Issuer: C=JP, ST=Linear, O=Linear Sample, CN=Linear Sample CA
        Validity
            Not Before: Aug 27 00:50:32 2015 GMT
            Not After : Aug 24 00:50:32 2025 GMT
        Subject: C=JP, ST=Linear, O=Linear Sample, CN=Linear Sample CLIENT
        Subject Public Key Info:
            Public Key Algorithm: rsaEncryption
                Public-Key: (2048 bit)
                Modulus:
                    00:d7:69:33:72:20:ef:73:cd:24:25:33:97:07:25:
                    cf:27:0b:9a:c7:87:b3:8e:85:a2:9f:41:b2:f0:56:
                    a6:91:68:84:4e:5b:d8:61:be:d2:c0:90:7d:1f:2a:
                    53:08:cf:60:fc:46:99:89:71:bc:0e:43:9a:a6:9a:
                    12:42:2b:ab:b2:62:db:0b:d1:76:6a:a8:90:a9:e4:
                    80:3e:94:72:5c:62:f5:0f:a2:ac:d8:3c:ac:41:ef:
                    85:a2:08:86:05:00:2f:d6:cb:48:83:98:3a:40:ad:
                    4b:e5:29:ca:0c:35:23:05:b0:a3:8a:23:10:3f:82:
                    37:09:a9:72:93:e2:46:68:7b:fd:c7:11:34:1a:5c:
                    cc:33:fc:9f:49:46:1b:0b:6b:7c:2f:ba:f2:6b:5b:
                    81:60:20:00:f5:72:de:ec:2c:03:24:06:da:b2:eb:
                    7d:95:0a:22:a0:5f:be:cc:0c:f0:42:6f:7f:76:a8:
                    fa:7e:58:1a:82:34:9b:25:c4:08:04:e1:c5:85:17:
                    6c:42:b5:d1:3a:da:f1:d5:3f:25:37:c9:7f:21:af:
                    54:4b:e5:16:eb:64:35:e9:16:7e:4e:c7:5a:fc:fa:
                    51:3e:5f:fd:4f:0d:ea:d1:4e:fe:17:c8:25:26:38:
                    f8:11:f6:c6:95:54:02:07:e7:5b:6b:8d:30:9d:9c:
                    7c:27
                Exponent: 65537 (0x10001)
        X509v3 extensions:
            X509v3 Basic Constraints: 
                CA:FALSE
            Netscape Comment: 
                OpenSSL Generated Certificate
            X509v3 Subject Key Identifier: 
                7E:BE:CB:73:66:03:30:F7:8B:20:D5:DD:23:83:5E:37:1F:33:62:E8
            X509v3 Authority Key Identifier: 
                DirName:/C=JP/ST=Linear/O=Linear Sample/CN=Linear Sample CA
                serial:FC:04:DB:22:59:CD:82:9C

    Signature Algorithm: sha256WithRSAEncryption
         5b:65:93:c7:7b:d0:7c:32:23:89:38:99:8e:6b:e6:ee:ab:a5:
         6c:ad:09:40:63:ea:9f:6f:4d:ec:f1:63:b7:b4:e3:01:be:53:
         0c:27:e2:39:aa:58:d2:b8:36:01:af:68:ba:f3:f7:bf:a6:56:
         83:e9:96:9e:f0:62:c2:04:f5:7e:6a:de:11:3f:f1:76:62:90:
         0e:ca:de:ef:98:4f:f9:0a:af:5a:2f:06:42:55:78:5b:7f:31:
         15:99:c3:1a:7e:bb:36:ba:63:2d:6d:e4:69:e0:e9:96:89:14:
         86:7e:98:75:75:c8:17:74:2f:bf:f1:d9:32:1a:de:02:7b:40:
         ed:10:3d:56:08:26:5e:57:53:b0:79:3d:8d:e2:6b:d6:62:c2:
         c3:92:9a:7c:7e:be:fb:74:ad:9e:88:3e:09:8e:e9:f3:2d:b1:
         32:b3:be:bc:74:8a:5f:a7:f7:f5:8d:b0:84:75:fd:ab:55:c5:
         fa:2e:60:a3:5f:af:c5:c4:8f:07:96:9f:dc:ba:2e:6d:8b:e7:
         83:af:61:c8:0c:7d:64:97:47:8b:be:ee:86:69:f6:e2:f2:0e:
         26:9c:d5:45:8e:db:64:c4:cd:96:bb:bb:e0:34:be:ff:2f:20:
         0f:7f:04:db:5d:fb:1b:03:1e:13:28:cb:95:d1:2f:1f:5e:0a:
         17:39:8f:17
-----BEGIN CERTIFICATE-----
MIID6jCCAtKgAwIBAgIBATANBgkqhkiG9w0BAQsFADBRMQswCQYDVQQGEwJKUDEP
MA0GA1UECAwGTGluZWFyMRYwFAYDVQQKDA1MaW5lYXIgU2FtcGxlMRkwFwYDVQQD
DBBMaW5lYXIgU2FtcGxlIENBMB4XDTE1MDgyNzAwNTAzMloXDTI1MDgyNDAwNTAz
MlowVTELMAkGA1UEBhMCSlAxDzANBgNVBAgMBkxpbmVhcjEWMBQGA1UECgwNTGlu
ZWFyIFNhbXBsZTEdMBsGA1UEAwwUTGluZWFyIFNhbXBsZSBDTElFTlQwggEiMA0G
CSqGSIb3DQEBAQUAA4IBDwAwggEKAoIBAQDXaTNyIO9zzSQlM5cHJc8nC5rHh7OO
haKfQbLwVqaRaIROW9hhvtLAkH0fKlMIz2D8RpmJcbwOQ5qmmhJCK6uyYtsL0XZq
qJCp5IA+lHJcYvUPoqzYPKxB74WiCIYFAC/Wy0iDmDpArUvlKcoMNSMFsKOKIxA/
gjcJqXKT4kZoe/3HETQaXMwz/J9JRhsLa3wvuvJrW4FgIAD1ct7sLAMkBtqy632V
CiKgX77MDPBCb392qPp+WBqCNJslxAgE4cWFF2xCtdE62vHVPyU3yX8hr1RL5Rbr
ZDXpFn5Ox1r8+lE+X/1PDerRTv4XyCUmOPgR9saVVAIH51trjTCdnHwnAgMBAAGj
gcgwgcUwCQYDVR0TBAIwADAsBglghkgBhvhCAQ0EHxYdT3BlblNTTCBHZW5lcmF0
ZWQgQ2VydGlmaWNhdGUwHQYDVR0OBBYEFH6+y3NmAzD3iyDV3SODXjcfM2LoMGsG
A1UdIwRkMGKhVaRTMFExCzAJBgNVBAYTAkpQMQ8wDQYDVQQIDAZMaW5lYXIxFjAU
BgNVBAoMDUxpbmVhciBTYW1wbGUxGTAXBgNVBAMMEExpbmVhciBTYW1wbGUgQ0GC
CQD8BNsiWc2CnDANBgkqhkiG9w0BAQsFAAOCAQEAW2WTx3vQfDIjiTiZjmvm7qul
bK0JQGPqn29N7PFjt7TjAb5TDCfiOapY0rg2Aa9ouvP3v6ZWg+mWnvBiwgT1fmre
ET/xdmKQDsre75hP+QqvWi8GQlV4W38xFZnDGn67NrpjLW3kaeDplokUhn6YdXXI
F3Qvv/HZMhreAntA7RA9VggmXldTsHk9jeJr1mLCw5KafH6++3Stnog+CY7p8y2x
MrO+vHSKX6f39Y2whHX9q1XF+i5go1+vxcSPB5af3LoubYvng69hyAx9ZJdHi77u
hmn24vIOJpzVRY7bZMTNlru74DS+/y8gD38E2137GwMeEyjLldEvH14KFzmPFw==
-----END CERTIFICATE-----
