Certificate:
    Data:
        Version: 3 (0x2)
        Serial Number: 0 (0x0)
    Signature Algorithm: sha256WithRSAEncryption
        Issuer: C=JP, ST=Linear, O=Linear Sample, CN=Linear Sample CA
        Validity
            Not Before: Jan 22 02:44:50 2016 GMT
            Not After : Jan 19 02:44:50 2026 GMT
        Subject: C=JP, ST=Linear, O=Linear Sample, CN=Linear Sample SERVER
        Subject Public Key Info:
            Public Key Algorithm: rsaEncryption
                Public-Key: (2048 bit)
                Modulus:
                    00:dc:6d:6a:cc:68:dd:c2:e3:e8:5f:37:f0:00:8d:
                    8c:5c:bc:a2:cd:78:e7:01:be:59:e7:a9:28:05:4d:
                    6c:53:0f:f2:ea:8a:6d:04:74:3a:5e:eb:3f:32:a0:
                    7b:7d:0b:47:f7:73:1d:b7:ce:11:5e:1c:7b:bb:a5:
                    1a:23:42:3e:73:db:8d:87:64:28:6c:3e:5d:2f:09:
                    95:64:53:20:d1:94:6c:6e:4b:72:16:87:64:4e:45:
                    9b:7f:61:2a:94:00:a4:a1:4b:00:56:8b:ea:09:52:
                    f0:02:99:6a:34:0a:ce:9f:a7:15:70:4c:ed:98:b2:
                    88:0c:cd:dd:47:3a:7a:5d:be:08:ea:3a:d8:00:7a:
                    c7:48:d1:e8:30:67:d3:a7:b8:68:dd:ac:90:1f:2b:
                    dd:28:d6:78:15:82:f8:ad:d5:f9:3b:5d:2f:5c:fa:
                    8a:3e:d7:7d:69:59:67:c4:74:b2:c9:31:24:e7:65:
                    0d:2f:70:04:ad:2e:d0:ba:43:94:37:95:47:62:15:
                    d5:c0:33:5f:70:89:4d:8a:8b:4d:40:ea:2d:3e:29:
                    8d:6e:8e:ec:2d:a2:e4:c0:da:68:de:f7:a6:b8:f7:
                    cc:8d:81:8e:bf:20:12:dd:97:d1:a8:9b:2a:73:b6:
                    55:ae:a0:da:94:bc:f7:f1:66:a0:67:0e:26:36:0d:
                    b9:33
                Exponent: 65537 (0x10001)
        X509v3 extensions:
            X509v3 Basic Constraints: 
                CA:FALSE
            Netscape Comment: 
                OpenSSL Generated Certificate
            X509v3 Subject Key Identifier: 
                CD:93:D1:75:02:8B:1E:F4:D5:34:A6:B8:8A:8B:2C:5D:6D:22:70:85
            X509v3 Authority Key Identifier: 
                DirName:/C=JP/ST=Linear/O=Linear Sample/CN=Linear Sample CA
                serial:A9:B6:45:52:B1:31:07:9C

    Signature Algorithm: sha256WithRSAEncryption
         44:65:eb:4b:80:6b:dd:3e:9c:dc:44:0c:d9:a3:84:7b:03:a3:
         cb:28:39:a5:26:71:6b:6b:17:b4:f7:d3:d6:dc:31:23:54:6b:
         79:47:0e:eb:67:07:64:13:26:f1:31:2e:26:50:86:86:cc:34:
         80:63:12:5f:69:1a:26:82:52:89:6d:40:c7:1c:91:01:dd:ba:
         51:4e:23:b2:ae:d6:8e:d6:af:bf:05:c8:a9:21:37:c8:e9:ba:
         21:34:1c:67:e8:9e:1a:a5:d1:a1:4d:e9:67:55:22:25:6e:b8:
         32:62:c2:1a:ae:25:87:ab:ee:64:30:42:94:10:72:c5:24:ba:
         2c:8d:c5:67:30:38:47:1e:f2:47:33:3b:ff:aa:59:a7:4b:b5:
         dd:c0:a3:d3:84:be:e3:13:b0:34:3d:f6:6f:66:fc:8e:d4:cd:
         78:12:94:14:9f:43:36:b8:5a:c9:a2:76:bf:10:d6:67:1e:33:
         08:c3:45:01:99:f9:67:9b:1c:2e:af:02:e2:ca:42:0e:25:08:
         51:eb:aa:96:47:fa:b7:2c:ea:fd:d6:9f:79:c2:b3:ce:9b:d6:
         f9:96:90:48:18:c9:e0:00:12:fe:34:8e:d5:24:e5:a1:c1:55:
         3d:48:c3:b9:72:ef:ae:92:c3:0a:c5:43:49:e6:ab:be:c5:92:
         2b:bb:65:df
-----BEGIN CERTIFICATE-----
MIID6jCCAtKgAwIBAgIBADANBgkqhkiG9w0BAQsFADBRMQswCQYDVQQGEwJKUDEP
MA0GA1UECAwGTGluZWFyMRYwFAYDVQQKDA1MaW5lYXIgU2FtcGxlMRkwFwYDVQQD
DBBMaW5lYXIgU2FtcGxlIENBMB4XDTE2MDEyMjAyNDQ1MFoXDTI2MDExOTAyNDQ1
MFowVTELMAkGA1UEBhMCSlAxDzANBgNVBAgMBkxpbmVhcjEWMBQGA1UECgwNTGlu
ZWFyIFNhbXBsZTEdMBsGA1UEAwwUTGluZWFyIFNhbXBsZSBTRVJWRVIwggEiMA0G
CSqGSIb3DQEBAQUAA4IBDwAwggEKAoIBAQDcbWrMaN3C4+hfN/AAjYxcvKLNeOcB
vlnnqSgFTWxTD/Lqim0EdDpe6z8yoHt9C0f3cx23zhFeHHu7pRojQj5z242HZChs
Pl0vCZVkUyDRlGxuS3IWh2RORZt/YSqUAKShSwBWi+oJUvACmWo0Cs6fpxVwTO2Y
sogMzd1HOnpdvgjqOtgAesdI0egwZ9OnuGjdrJAfK90o1ngVgvit1fk7XS9c+oo+
131pWWfEdLLJMSTnZQ0vcAStLtC6Q5Q3lUdiFdXAM19wiU2Ki01A6i0+KY1ujuwt
ouTA2mje96a498yNgY6/IBLdl9GomypztlWuoNqUvPfxZqBnDiY2DbkzAgMBAAGj
gcgwgcUwCQYDVR0TBAIwADAsBglghkgBhvhCAQ0EHxYdT3BlblNTTCBHZW5lcmF0
ZWQgQ2VydGlmaWNhdGUwHQYDVR0OBBYEFM2T0XUCix701TSmuIqLLF1tInCFMGsG
A1UdIwRkMGKhVaRTMFExCzAJBgNVBAYTAkpQMQ8wDQYDVQQIDAZMaW5lYXIxFjAU
BgNVBAoMDUxpbmVhciBTYW1wbGUxGTAXBgNVBAMMEExpbmVhciBTYW1wbGUgQ0GC
CQCptkVSsTEHnDANBgkqhkiG9w0BAQsFAAOCAQEARGXrS4Br3T6c3EQM2aOEewOj
yyg5pSZxa2sXtPfT1twxI1RreUcO62cHZBMm8TEuJlCGhsw0gGMSX2kaJoJSiW1A
xxyRAd26UU4jsq7WjtavvwXIqSE3yOm6ITQcZ+ieGqXRoU3pZ1UiJW64MmLCGq4l
h6vuZDBClBByxSS6LI3FZzA4Rx7yRzM7/6pZp0u13cCj04S+4xOwND32b2b8jtTN
eBKUFJ9DNrhayaJ2vxDWZx4zCMNFAZn5Z5scLq8C4spCDiUIUeuqlkf6tyzq/daf
ecKzzpvW+ZaQSBjJ4AAS/jSO1STlocFVPUjDuXLvrpLDCsVDSearvsWSK7tl3w==
-----END CERTIFICATE-----
