Certificate:
    Data:
        Version: 3 (0x2)
        Serial Number: 2 (0x2)
    Signature Algorithm: sha256WithRSAEncryption
        Issuer: C=JP, ST=Linear, O=Linear Sample, CN=Linear Sample CA
        Validity
            Not Before: Jan 22 02:44:51 2016 GMT
            Not After : Jan 19 02:44:51 2026 GMT
        Subject: C=JP, ST=Linear, O=Linear Sample, CN=Linear Sample SERVER-W-PASS
        Subject Public Key Info:
            Public Key Algorithm: rsaEncryption
                Public-Key: (2048 bit)
                Modulus:
                    00:b2:6a:8e:b6:2b:44:74:0e:4d:8b:a5:8e:64:9c:
                    dc:d0:8b:99:15:2d:72:4b:75:63:ca:02:72:13:0c:
                    bc:2d:01:04:3b:62:3b:76:02:a7:31:51:f3:98:78:
                    68:22:85:dd:b1:4d:97:cf:bc:a8:5e:2b:0b:78:74:
                    1b:46:d1:3f:73:25:bb:14:b1:a6:01:55:85:6f:d2:
                    cc:70:ca:bb:67:75:1d:9a:7b:5e:98:5e:be:eb:db:
                    08:bf:7d:dd:3c:85:0b:32:2f:d3:58:85:b9:26:35:
                    77:25:c4:d3:4f:cc:c3:1c:42:39:be:c3:da:d8:ae:
                    5a:00:00:23:55:15:2a:2a:70:d1:23:2b:a2:4c:c0:
                    1e:bb:0e:9c:09:61:1a:c6:80:22:86:8a:bb:8b:c9:
                    d2:a3:50:c9:99:48:27:d2:ca:58:e8:e4:77:77:1e:
                    fa:26:84:a5:8b:e5:80:6d:6f:f8:ce:cd:a1:ab:e4:
                    22:e2:9a:04:3a:00:87:d8:6d:fb:01:b3:88:e8:8e:
                    a4:54:05:33:fb:2b:a1:54:1c:f7:04:07:a3:74:98:
                    29:a3:4a:18:01:b2:1a:ad:9f:b3:5a:3e:9e:af:28:
                    9a:8c:43:69:96:a3:9d:d6:13:2a:f0:47:48:fb:be:
                    10:66:44:49:76:59:21:af:da:cd:3e:d2:b5:ea:f3:
                    b3:01
                Exponent: 65537 (0x10001)
        X509v3 extensions:
            X509v3 Basic Constraints: 
                CA:FALSE
            Netscape Comment: 
                OpenSSL Generated Certificate
            X509v3 Subject Key Identifier: 
                3B:B5:76:0B:5A:21:25:96:AB:E0:F6:55:D1:1B:EB:75:2E:C8:FD:57
            X509v3 Authority Key Identifier: 
                DirName:/C=JP/ST=Linear/O=Linear Sample/CN=Linear Sample CA
                serial:A9:B6:45:52:B1:31:07:9C

    Signature Algorithm: sha256WithRSAEncryption
         8f:d9:ad:bb:3b:f6:e1:50:c1:33:93:73:f2:a4:69:e7:33:1e:
         45:4b:cc:15:69:2f:76:ef:b3:27:df:6e:02:da:93:61:40:17:
         fd:fb:28:67:b7:62:e2:97:c0:55:85:bb:11:38:13:41:3f:6f:
         3d:a2:32:3d:83:63:50:ac:14:ce:a8:2a:1a:c1:27:f2:d8:40:
         41:71:0f:30:6b:a2:de:cc:e9:e8:a3:3e:f1:2b:12:b8:e2:77:
         18:6c:38:59:5c:31:88:5d:2e:f3:bc:9b:5c:e9:59:0c:31:67:
         9d:3e:b3:0f:66:f1:e4:65:75:47:ce:c1:95:e9:18:08:be:f2:
         fd:24:99:6a:ea:01:e2:c1:bb:db:23:a5:76:13:48:38:59:99:
         59:2b:2c:3e:e3:3d:bb:29:6f:a1:bd:9f:ef:17:65:e2:22:c4:
         b5:e5:8b:9a:53:3a:cc:ab:eb:09:92:fa:35:6b:a0:eb:d4:82:
         37:fc:52:ad:00:26:92:23:3f:30:15:c6:a6:b4:b1:dc:2e:31:
         68:37:d9:22:82:e0:de:eb:6f:a2:d2:c5:4c:03:2c:0c:e8:b0:
         3c:d4:48:8d:d0:0c:a6:0c:45:8c:ce:64:de:5d:7c:fc:0a:90:
         ea:ae:ab:1a:84:d2:54:d7:00:cb:ba:94:6a:f3:c9:89:8b:24:
         15:a3:4c:b1
-----BEGIN CERTIFICATE-----
MIID8TCCAtmgAwIBAgIBAjANBgkqhkiG9w0BAQsFADBRMQswCQYDVQQGEwJKUDEP
MA0GA1UECAwGTGluZWFyMRYwFAYDVQQKDA1MaW5lYXIgU2FtcGxlMRkwFwYDVQQD
DBBMaW5lYXIgU2FtcGxlIENBMB4XDTE2MDEyMjAyNDQ1MVoXDTI2MDExOTAyNDQ1
MVowXDELMAkGA1UEBhMCSlAxDzANBgNVBAgMBkxpbmVhcjEWMBQGA1UECgwNTGlu
ZWFyIFNhbXBsZTEkMCIGA1UEAwwbTGluZWFyIFNhbXBsZSBTRVJWRVItVy1QQVNT
MIIBIjANBgkqhkiG9w0BAQEFAAOCAQ8AMIIBCgKCAQEAsmqOtitEdA5Ni6WOZJzc
0IuZFS1yS3VjygJyEwy8LQEEO2I7dgKnMVHzmHhoIoXdsU2Xz7yoXisLeHQbRtE/
cyW7FLGmAVWFb9LMcMq7Z3UdmntemF6+69sIv33dPIULMi/TWIW5JjV3JcTTT8zD
HEI5vsPa2K5aAAAjVRUqKnDRIyuiTMAeuw6cCWEaxoAihoq7i8nSo1DJmUgn0spY
6OR3dx76JoSli+WAbW/4zs2hq+Qi4poEOgCH2G37AbOI6I6kVAUz+yuhVBz3BAej
dJgpo0oYAbIarZ+zWj6eryiajENplqOd1hMq8EdI+74QZkRJdlkhr9rNPtK16vOz
AQIDAQABo4HIMIHFMAkGA1UdEwQCMAAwLAYJYIZIAYb4QgENBB8WHU9wZW5TU0wg
R2VuZXJhdGVkIENlcnRpZmljYXRlMB0GA1UdDgQWBBQ7tXYLWiEllqvg9lXRG+t1
Lsj9VzBrBgNVHSMEZDBioVWkUzBRMQswCQYDVQQGEwJKUDEPMA0GA1UECAwGTGlu
ZWFyMRYwFAYDVQQKDA1MaW5lYXIgU2FtcGxlMRkwFwYDVQQDDBBMaW5lYXIgU2Ft
cGxlIENBggkAqbZFUrExB5wwDQYJKoZIhvcNAQELBQADggEBAI/Zrbs79uFQwTOT
c/KkaeczHkVLzBVpL3bvsyffbgLak2FAF/37KGe3YuKXwFWFuxE4E0E/bz2iMj2D
Y1CsFM6oKhrBJ/LYQEFxDzBrot7M6eijPvErErjidxhsOFlcMYhdLvO8m1zpWQwx
Z50+sw9m8eRldUfOwZXpGAi+8v0kmWrqAeLBu9sjpXYTSDhZmVkrLD7jPbspb6G9
n+8XZeIixLXli5pTOsyr6wmS+jVroOvUgjf8Uq0AJpIjPzAVxqa0sdwuMWg32SKC
4N7rb6LSxUwDLAzosDzUSI3QDKYMRYzOZN5dfPwKkOquqxqE0lTXAMu6lGrzyYmL
JBWjTLE=
-----END CERTIFICATE-----
