Certificate:
    Data:
        Version: 3 (0x2)
        Serial Number: 0 (0x0)
    Signature Algorithm: sha256WithRSAEncryption
        Issuer: C=JP, ST=Linear, O=Linear Sample, CN=Linear Sample CA
        Validity
            Not Before: Aug 27 00:50:32 2015 GMT
            Not After : Aug 24 00:50:32 2025 GMT
        Subject: C=JP, ST=Linear, O=Linear Sample, CN=Linear Sample SERVER
        Subject Public Key Info:
            Public Key Algorithm: rsaEncryption
                Public-Key: (2048 bit)
                Modulus:
                    00:bd:62:ec:1f:24:03:32:77:bf:c3:7c:c9:0c:6a:
                    bb:1c:bd:18:a4:b1:5d:0e:9c:92:27:84:70:4d:d1:
                    56:ba:8d:d1:53:80:43:c8:4a:2a:3a:f6:3b:80:77:
                    15:fb:15:fb:81:26:a0:5a:24:92:a3:78:d1:51:48:
                    2b:da:f7:29:d6:b7:84:29:ad:28:2c:07:c9:ae:9a:
                    b0:94:d8:e9:e2:b7:90:4a:7c:86:2d:4d:37:71:dc:
                    ca:07:4e:38:bc:79:2f:a3:d2:ce:ca:8e:d3:0a:50:
                    ae:1a:79:38:5e:59:0e:99:bd:00:b6:79:48:5d:13:
                    0b:bb:1f:26:51:3b:1f:35:28:95:b4:3f:eb:d6:76:
                    4d:7d:d5:13:17:5b:4a:5e:ed:dc:f8:06:cb:4a:92:
                    96:ab:65:28:da:df:c6:1f:05:79:0b:36:5a:5c:d5:
                    30:9d:ed:34:c3:cd:f9:5a:6c:cf:d9:94:3c:66:62:
                    98:31:0b:d2:4c:45:0d:d5:1c:91:af:bb:2b:1d:fa:
                    f4:db:04:db:ea:78:79:e2:e8:ec:81:11:a9:b5:d1:
                    ba:f9:4f:ce:be:d3:91:4c:10:3e:d2:cd:25:a4:57:
                    56:cf:1c:9a:63:7b:79:5a:a5:e3:3d:5b:5f:e8:91:
                    2c:ce:83:2f:c0:d5:36:bc:6b:73:26:b7:dd:b9:06:
                    34:5d
                Exponent: 65537 (0x10001)
        X509v3 extensions:
            X509v3 Basic Constraints: 
                CA:FALSE
            Netscape Comment: 
                OpenSSL Generated Certificate
            X509v3 Subject Key Identifier: 
                6B:08:29:CC:7C:8E:87:6C:6A:DB:B9:3E:54:90:AD:FB:01:94:F5:BE
            X509v3 Authority Key Identifier: 
                DirName:/C=JP/ST=Linear/O=Linear Sample/CN=Linear Sample CA
                serial:FC:04:DB:22:59:CD:82:9C

    Signature Algorithm: sha256WithRSAEncryption
         37:23:38:5e:03:30:df:32:c2:6a:b0:c7:dd:e5:14:86:3c:31:
         1c:b6:b2:d5:bc:f7:02:42:0e:01:71:31:3e:35:c5:a4:b1:57:
         2e:95:6b:10:81:dd:55:01:f1:83:53:0a:fe:07:c1:cd:43:54:
         e0:62:53:b2:38:4c:28:79:e7:f1:c6:03:1e:27:76:e3:8b:31:
         72:29:68:a1:75:e2:08:7f:bf:69:fd:1d:af:08:2d:2f:1f:89:
         af:8b:4e:82:6b:a4:28:ef:f6:56:d4:67:e0:d3:04:bb:8b:d8:
         1c:1b:db:25:6f:b5:2a:9e:2b:71:1a:b4:1b:29:f5:02:51:44:
         7b:1f:2d:e3:93:9d:56:c1:e0:e0:be:a4:55:04:3a:6c:2a:7f:
         87:a7:8a:d4:c0:21:8d:31:4f:d7:01:d2:66:3a:40:6d:5f:54:
         00:2d:17:57:8c:5d:6f:6a:69:66:9e:26:f3:71:1f:26:bd:c5:
         8d:2f:63:6c:de:f6:6b:d5:da:c8:a3:18:9d:dd:e8:ed:bd:f0:
         a5:13:2c:a6:ad:06:86:13:9a:3b:62:cf:60:84:ed:e0:21:59:
         7f:57:37:ac:b3:12:5d:6a:6c:3a:5d:8c:d9:97:b0:a3:a7:5e:
         03:33:f4:8c:3c:63:eb:c9:85:5e:2d:b5:d1:e9:a4:33:44:12:
         47:8f:65:0d
-----BEGIN CERTIFICATE-----
MIID6jCCAtKgAwIBAgIBADANBgkqhkiG9w0BAQsFADBRMQswCQYDVQQGEwJKUDEP
MA0GA1UECAwGTGluZWFyMRYwFAYDVQQKDA1MaW5lYXIgU2FtcGxlMRkwFwYDVQQD
DBBMaW5lYXIgU2FtcGxlIENBMB4XDTE1MDgyNzAwNTAzMloXDTI1MDgyNDAwNTAz
MlowVTELMAkGA1UEBhMCSlAxDzANBgNVBAgMBkxpbmVhcjEWMBQGA1UECgwNTGlu
ZWFyIFNhbXBsZTEdMBsGA1UEAwwUTGluZWFyIFNhbXBsZSBTRVJWRVIwggEiMA0G
CSqGSIb3DQEBAQUAA4IBDwAwggEKAoIBAQC9YuwfJAMyd7/DfMkMarscvRiksV0O
nJInhHBN0Va6jdFTgEPISio69juAdxX7FfuBJqBaJJKjeNFRSCva9ynWt4QprSgs
B8mumrCU2Onit5BKfIYtTTdx3MoHTji8eS+j0s7KjtMKUK4aeTheWQ6ZvQC2eUhd
Ewu7HyZROx81KJW0P+vWdk191RMXW0pe7dz4BstKkparZSja38YfBXkLNlpc1TCd
7TTDzflabM/ZlDxmYpgxC9JMRQ3VHJGvuysd+vTbBNvqeHni6OyBEam10br5T86+
05FMED7SzSWkV1bPHJpje3lapeM9W1/okSzOgy/A1Ta8a3Mmt925BjRdAgMBAAGj
gcgwgcUwCQYDVR0TBAIwADAsBglghkgBhvhCAQ0EHxYdT3BlblNTTCBHZW5lcmF0
ZWQgQ2VydGlmaWNhdGUwHQYDVR0OBBYEFGsIKcx8jodsatu5PlSQrfsBlPW+MGsG
A1UdIwRkMGKhVaRTMFExCzAJBgNVBAYTAkpQMQ8wDQYDVQQIDAZMaW5lYXIxFjAU
BgNVBAoMDUxpbmVhciBTYW1wbGUxGTAXBgNVBAMMEExpbmVhciBTYW1wbGUgQ0GC
CQD8BNsiWc2CnDANBgkqhkiG9w0BAQsFAAOCAQEANyM4XgMw3zLCarDH3eUUhjwx
HLay1bz3AkIOAXExPjXFpLFXLpVrEIHdVQHxg1MK/gfBzUNU4GJTsjhMKHnn8cYD
Hid244sxcilooXXiCH+/af0drwgtLx+Jr4tOgmukKO/2VtRn4NMEu4vYHBvbJW+1
Kp4rcRq0Gyn1AlFEex8t45OdVsHg4L6kVQQ6bCp/h6eK1MAhjTFP1wHSZjpAbV9U
AC0XV4xdb2ppZp4m83EfJr3FjS9jbN72a9XayKMYnd3o7b3wpRMspq0GhhOaO2LP
YITt4CFZf1c3rLMSXWpsOl2M2Zewo6deAzP0jDxj68mFXi210emkM0QSR49lDQ==
-----END CERTIFICATE-----
